target datalayout = "e-m:e-p270:32:32-p271:32:32-p272:64:64-i64:64-i128:128-f80:128-n8:16:32:64-S128"
target triple = "x86_64-unknown-linux-gnu"

%"struct.OpenImageIO_v2_6_0::TypeDesc" = type { i8, i8, i8, i8, i32 }
%"class.OpenImageIO_v2_6_0::NullInput" = type { %"class.OpenImageIO_v2_6_0::ImageInput", %"class.std::__cxx11::basic_string", i32, i32, i8, %"class.std::vector.24", %"class.OpenImageIO_v2_6_0::ImageSpec" }
%"class.OpenImageIO_v2_6_0::ImageInput" = type { ptr, %"class.OpenImageIO_v2_6_0::ImageSpec", %"class.std::unique_ptr.12" }
%"class.std::unique_ptr.12" = type { %"struct.std::__uniq_ptr_data.13" }
%"struct.std::__uniq_ptr_data.13" = type { %"class.std::__uniq_ptr_impl.14" }
%"class.std::__uniq_ptr_impl.14" = type { %"class.std::tuple.15" }
%"class.std::tuple.15" = type { %"struct.std::_Tuple_impl.16" }
%"struct.std::_Tuple_impl.16" = type { %"struct.std::_Tuple_impl.17", %"struct.std::_Head_base.19" }
%"struct.std::_Tuple_impl.17" = type { %"struct.std::_Head_base.18" }
%"struct.std::_Head_base.18" = type { ptr }
%"struct.std::_Head_base.19" = type { ptr }
%"class.std::__cxx11::basic_string" = type { %"struct.std::__cxx11::basic_string<char>::_Alloc_hider", i64, %union.anon.23 }
%"struct.std::__cxx11::basic_string<char>::_Alloc_hider" = type { ptr }
%union.anon.23 = type { i64, [8 x i8] }
%"class.std::vector.24" = type { %"struct.std::_Vector_base.25" }
%"struct.std::_Vector_base.25" = type { %"struct.std::_Vector_base<unsigned char, std::allocator<unsigned char>>::_Vector_impl" }
%"struct.std::_Vector_base<unsigned char, std::allocator<unsigned char>>::_Vector_impl" = type { %"struct.std::_Vector_base<unsigned char, std::allocator<unsigned char>>::_Vector_impl_data" }
%"struct.std::_Vector_base<unsigned char, std::allocator<unsigned char>>::_Vector_impl_data" = type { ptr, ptr, ptr }
%"class.OpenImageIO_v2_6_0::ImageSpec" = type { i32, i32, i32, i32, i32, i32, i32, i32, i32, i32, i32, i32, i32, i32, i32, i32, %"struct.OpenImageIO_v2_6_0::TypeDesc", %"class.std::vector", %"class.std::vector.0", i32, i32, i8, %"class.OpenImageIO_v2_6_0::ParamValueList" }
%"class.std::vector" = type { %"struct.std::_Vector_base" }
%"struct.std::_Vector_base" = type { %"struct.std::_Vector_base<OpenImageIO_v2_6_0::TypeDesc, std::allocator<OpenImageIO_v2_6_0::TypeDesc>>::_Vector_impl" }
%"struct.std::_Vector_base<OpenImageIO_v2_6_0::TypeDesc, std::allocator<OpenImageIO_v2_6_0::TypeDesc>>::_Vector_impl" = type { %"struct.std::_Vector_base<OpenImageIO_v2_6_0::TypeDesc, std::allocator<OpenImageIO_v2_6_0::TypeDesc>>::_Vector_impl_data" }
%"struct.std::_Vector_base<OpenImageIO_v2_6_0::TypeDesc, std::allocator<OpenImageIO_v2_6_0::TypeDesc>>::_Vector_impl_data" = type { ptr, ptr, ptr }
%"class.std::vector.0" = type { %"struct.std::_Vector_base.1" }
%"struct.std::_Vector_base.1" = type { %"struct.std::_Vector_base<std::__cxx11::basic_string<char>, std::allocator<std::__cxx11::basic_string<char>>>::_Vector_impl" }
%"struct.std::_Vector_base<std::__cxx11::basic_string<char>, std::allocator<std::__cxx11::basic_string<char>>>::_Vector_impl" = type { %"struct.std::_Vector_base<std::__cxx11::basic_string<char>, std::allocator<std::__cxx11::basic_string<char>>>::_Vector_impl_data" }
%"struct.std::_Vector_base<std::__cxx11::basic_string<char>, std::allocator<std::__cxx11::basic_string<char>>>::_Vector_impl_data" = type { ptr, ptr, ptr }
%"class.OpenImageIO_v2_6_0::ParamValueList" = type { %"class.std::vector.5" }
%"class.std::vector.5" = type { %"struct.std::_Vector_base.6" }
%"struct.std::_Vector_base.6" = type { %"struct.std::_Vector_base<OpenImageIO_v2_6_0::ParamValue, std::allocator<OpenImageIO_v2_6_0::ParamValue>>::_Vector_impl" }
%"struct.std::_Vector_base<OpenImageIO_v2_6_0::ParamValue, std::allocator<OpenImageIO_v2_6_0::ParamValue>>::_Vector_impl" = type { %"struct.std::_Vector_base<OpenImageIO_v2_6_0::ParamValue, std::allocator<OpenImageIO_v2_6_0::ParamValue>>::_Vector_impl_data" }
%"struct.std::_Vector_base<OpenImageIO_v2_6_0::ParamValue, std::allocator<OpenImageIO_v2_6_0::ParamValue>>::_Vector_impl_data" = type { ptr, ptr, ptr }

; Function Attrs: mustprogress uwtable
define linkonce_odr noundef nonnull align 8 dereferenceable(24) ptr @_ZN18OpenImageIO_v2_6_014ParamValueListaSERKS0_(ptr noundef nonnull align 8 dereferenceable(24) %this, ptr noundef nonnull align 8 dereferenceable(24) %0) #6 comdat align 2 {
entry:
  %this.addr = alloca ptr, align 8
  %.addr = alloca ptr, align 8
  store ptr %this, ptr %this.addr, align 8
  store ptr %0, ptr %.addr, align 8
  %this1 = load ptr, ptr %this.addr, align 8
  %1 = load ptr, ptr %.addr, align 8
  %call = call noundef nonnull align 8 dereferenceable(24) ptr @_ZNSt6vectorIN18OpenImageIO_v2_6_010ParamValueESaIS1_EEaSERKS3_(ptr noundef nonnull align 8 dereferenceable(24) %this1, ptr noundef nonnull align 8 dereferenceable(24) %1)
  ret ptr %this1
}

; Function Attrs: mustprogress nounwind uwtable
define linkonce_odr noundef nonnull align 4 dereferenceable(4) ptr @_ZSt3maxIiERKT_S2_S2_(ptr noundef nonnull align 4 dereferenceable(4) %__a, ptr noundef nonnull align 4 dereferenceable(4) %__b) #4 comdat {
entry:
  %retval = alloca ptr, align 8
  %__a.addr = alloca ptr, align 8
  %__b.addr = alloca ptr, align 8
  store ptr %__a, ptr %__a.addr, align 8
  store ptr %__b, ptr %__b.addr, align 8
  %0 = load ptr, ptr %__a.addr, align 8
  %1 = load i32, ptr %0, align 4
  %2 = load ptr, ptr %__b.addr, align 8
  %3 = load i32, ptr %2, align 4
  %cmp = icmp slt i32 %1, %3
  br i1 %cmp, label %if.then, label %if.end

if.then:                                          ; preds = %entry
  %4 = load ptr, ptr %__b.addr, align 8
  store ptr %4, ptr %retval, align 8
  br label %return

if.end:                                           ; preds = %entry
  %5 = load ptr, ptr %__a.addr, align 8
  store ptr %5, ptr %retval, align 8
  br label %return

return:                                           ; preds = %if.end, %if.then
  %6 = load ptr, ptr %retval, align 8
  ret ptr %6
}

; Function Attrs: mustprogress uwtable
define linkonce_odr noundef nonnull align 8 dereferenceable(160) ptr @_ZN18OpenImageIO_v2_6_09ImageSpecaSERKS0_(ptr noundef nonnull align 8 dereferenceable(160) %this, ptr noundef nonnull align 8 dereferenceable(160) %0) #6 comdat align 2 {
entry:
  %this.addr = alloca ptr, align 8
  %.addr = alloca ptr, align 8
  store ptr %this, ptr %this.addr, align 8
  store ptr %0, ptr %.addr, align 8
  %this1 = load ptr, ptr %this.addr, align 8
  %x = getelementptr inbounds %"class.OpenImageIO_v2_6_0::ImageSpec", ptr %this1, i32 0, i32 0
  %1 = load ptr, ptr %.addr, align 8
  %x2 = getelementptr inbounds %"class.OpenImageIO_v2_6_0::ImageSpec", ptr %1, i32 0, i32 0
  call void @llvm.memcpy.p0.p0.i64(ptr align 8 %x, ptr align 8 %x2, i64 72, i1 false)
  %channelformats = getelementptr inbounds %"class.OpenImageIO_v2_6_0::ImageSpec", ptr %this1, i32 0, i32 17
  %2 = load ptr, ptr %.addr, align 8
  %channelformats3 = getelementptr inbounds %"class.OpenImageIO_v2_6_0::ImageSpec", ptr %2, i32 0, i32 17
  %call = call noundef nonnull align 8 dereferenceable(24) ptr @_ZNSt6vectorIN18OpenImageIO_v2_6_08TypeDescESaIS1_EEaSERKS3_(ptr noundef nonnull align 8 dereferenceable(24) %channelformats, ptr noundef nonnull align 8 dereferenceable(24) %channelformats3)
  %channelnames = getelementptr inbounds %"class.OpenImageIO_v2_6_0::ImageSpec", ptr %this1, i32 0, i32 18
  %3 = load ptr, ptr %.addr, align 8
  %channelnames4 = getelementptr inbounds %"class.OpenImageIO_v2_6_0::ImageSpec", ptr %3, i32 0, i32 18
  %call5 = call noundef nonnull align 8 dereferenceable(24) ptr @_ZNSt6vectorINSt7__cxx1112basic_stringIcSt11char_traitsIcESaIcEEESaIS5_EEaSERKS7_(ptr noundef nonnull align 8 dereferenceable(24) %channelnames, ptr noundef nonnull align 8 dereferenceable(24) %channelnames4)
  %alpha_channel = getelementptr inbounds %"class.OpenImageIO_v2_6_0::ImageSpec", ptr %this1, i32 0, i32 19
  %4 = load ptr, ptr %.addr, align 8
  %alpha_channel6 = getelementptr inbounds %"class.OpenImageIO_v2_6_0::ImageSpec", ptr %4, i32 0, i32 19
  call void @llvm.memcpy.p0.p0.i64(ptr align 8 %alpha_channel, ptr align 8 %alpha_channel6, i64 9, i1 false)
  %extra_attribs = getelementptr inbounds %"class.OpenImageIO_v2_6_0::ImageSpec", ptr %this1, i32 0, i32 22
  %5 = load ptr, ptr %.addr, align 8
  %extra_attribs7 = getelementptr inbounds %"class.OpenImageIO_v2_6_0::ImageSpec", ptr %5, i32 0, i32 22
  %call8 = call noundef nonnull align 8 dereferenceable(24) ptr @_ZN18OpenImageIO_v2_6_014ParamValueListaSERKS0_(ptr noundef nonnull align 8 dereferenceable(24) %extra_attribs, ptr noundef nonnull align 8 dereferenceable(24) %extra_attribs7)
  ret ptr %this1
}

; Function Attrs: mustprogress nounwind uwtable
define linkonce_odr hidden noundef i32 @_ZNK18OpenImageIO_v2_6_09NullInput16current_miplevelEv(ptr noundef nonnull align 8 dereferenceable(416) %this) unnamed_addr #4 comdat align 2 {
entry:
  %this.addr = alloca ptr, align 8
  store ptr %this, ptr %this.addr, align 8
  %this1 = load ptr, ptr %this.addr, align 8
  %m_miplevel = getelementptr inbounds %"class.OpenImageIO_v2_6_0::NullInput", ptr %this1, i32 0, i32 3
  %0 = load i32, ptr %m_miplevel, align 4
  ret i32 %0
}

; Function Attrs: mustprogress nounwind uwtable
define linkonce_odr hidden noundef i32 @_ZNK18OpenImageIO_v2_6_09NullInput16current_subimageEv(ptr noundef nonnull align 8 dereferenceable(416) %this) unnamed_addr #4 comdat align 2 {
entry:
  %this.addr = alloca ptr, align 8
  store ptr %this, ptr %this.addr, align 8
  %this1 = load ptr, ptr %this.addr, align 8
  %m_subimage = getelementptr inbounds %"class.OpenImageIO_v2_6_0::NullInput", ptr %this1, i32 0, i32 2
  %0 = load i32, ptr %m_subimage, align 8
  ret i32 %0
}

; Function Attrs: mustprogress uwtable
define hidden noundef zeroext i1 @_ZN18OpenImageIO_v2_6_09NullInput13seek_subimageEii(ptr noundef nonnull align 8 dereferenceable(416) %this, i32 noundef %subimage, i32 noundef %miplevel) unnamed_addr #6 align 2 {
entry:
  %retval = alloca i1, align 1
  %this.addr = alloca ptr, align 8
  %subimage.addr = alloca i32, align 4
  %miplevel.addr = alloca i32, align 4
  %ref.tmp = alloca i32, align 4
  %ref.tmp24 = alloca i32, align 4
  %ref.tmp30 = alloca i32, align 4
  %ref.tmp31 = alloca i32, align 4
  %ref.tmp38 = alloca i32, align 4
  %ref.tmp39 = alloca i32, align 4
  store ptr %this, ptr %this.addr, align 8
  store i32 %subimage, ptr %subimage.addr, align 4
  store i32 %miplevel, ptr %miplevel.addr, align 4
  %this1 = load ptr, ptr %this.addr, align 8
  %0 = load i32, ptr %subimage.addr, align 4
  %call = call noundef i32 @_ZNK18OpenImageIO_v2_6_09NullInput16current_subimageEv(ptr noundef nonnull align 8 dereferenceable(416) %this1)
  %cmp = icmp eq i32 %0, %call
  br i1 %cmp, label %land.lhs.true, label %if.end

land.lhs.true:                                    ; preds = %entry
  %1 = load i32, ptr %miplevel.addr, align 4
  %call2 = call noundef i32 @_ZNK18OpenImageIO_v2_6_09NullInput16current_miplevelEv(ptr noundef nonnull align 8 dereferenceable(416) %this1)
  %cmp3 = icmp eq i32 %1, %call2
  br i1 %cmp3, label %if.then, label %if.end

if.then:                                          ; preds = %land.lhs.true
  store i1 true, ptr %retval, align 1
  br label %return

if.end:                                           ; preds = %land.lhs.true, %entry
  %2 = load i32, ptr %subimage.addr, align 4
  %cmp4 = icmp ne i32 %2, 0
  br i1 %cmp4, label %if.then5, label %if.end6

if.then5:                                         ; preds = %if.end
  store i1 false, ptr %retval, align 1
  br label %return

if.end6:                                          ; preds = %if.end
  %3 = load i32, ptr %subimage.addr, align 4
  %m_subimage = getelementptr inbounds %"class.OpenImageIO_v2_6_0::NullInput", ptr %this1, i32 0, i32 2
  store i32 %3, ptr %m_subimage, align 8
  %4 = load i32, ptr %miplevel.addr, align 4
  %cmp7 = icmp sgt i32 %4, 0
  br i1 %cmp7, label %land.lhs.true8, label %if.end10

land.lhs.true8:                                   ; preds = %if.end6
  %m_mip = getelementptr inbounds %"class.OpenImageIO_v2_6_0::NullInput", ptr %this1, i32 0, i32 4
  %5 = load i8, ptr %m_mip, align 8
  %tobool = trunc i8 %5 to i1
  br i1 %tobool, label %if.end10, label %if.then9

if.then9:                                         ; preds = %land.lhs.true8
  store i1 false, ptr %retval, align 1
  br label %return

if.end10:                                         ; preds = %land.lhs.true8, %if.end6
  %m_topspec = getelementptr inbounds %"class.OpenImageIO_v2_6_0::NullInput", ptr %this1, i32 0, i32 6
  %m_spec = getelementptr inbounds %"class.OpenImageIO_v2_6_0::ImageInput", ptr %this1, i32 0, i32 1
  %call11 = call noundef nonnull align 8 dereferenceable(160) ptr @_ZN18OpenImageIO_v2_6_09ImageSpecaSERKS0_(ptr noundef nonnull align 8 dereferenceable(160) %m_spec, ptr noundef nonnull align 8 dereferenceable(160) %m_topspec)
  %m_miplevel = getelementptr inbounds %"class.OpenImageIO_v2_6_0::NullInput", ptr %this1, i32 0, i32 3
  store i32 0, ptr %m_miplevel, align 4
  br label %for.cond

for.cond:                                         ; preds = %for.inc, %if.end10
  %m_miplevel12 = getelementptr inbounds %"class.OpenImageIO_v2_6_0::NullInput", ptr %this1, i32 0, i32 3
  %6 = load i32, ptr %m_miplevel12, align 4
  %7 = load i32, ptr %miplevel.addr, align 4
  %cmp13 = icmp slt i32 %6, %7
  br i1 %cmp13, label %for.body, label %for.end

for.body:                                         ; preds = %for.cond
  %m_spec14 = getelementptr inbounds %"class.OpenImageIO_v2_6_0::ImageInput", ptr %this1, i32 0, i32 1
  %width = getelementptr inbounds %"class.OpenImageIO_v2_6_0::ImageSpec", ptr %m_spec14, i32 0, i32 3
  %8 = load i32, ptr %width, align 4
  %cmp15 = icmp eq i32 %8, 1
  br i1 %cmp15, label %land.lhs.true16, label %if.end23

land.lhs.true16:                                  ; preds = %for.body
  %m_spec17 = getelementptr inbounds %"class.OpenImageIO_v2_6_0::ImageInput", ptr %this1, i32 0, i32 1
  %height = getelementptr inbounds %"class.OpenImageIO_v2_6_0::ImageSpec", ptr %m_spec17, i32 0, i32 4
  %9 = load i32, ptr %height, align 8
  %cmp18 = icmp eq i32 %9, 1
  br i1 %cmp18, label %land.lhs.true19, label %if.end23

land.lhs.true19:                                  ; preds = %land.lhs.true16
  %m_spec20 = getelementptr inbounds %"class.OpenImageIO_v2_6_0::ImageInput", ptr %this1, i32 0, i32 1
  %depth = getelementptr inbounds %"class.OpenImageIO_v2_6_0::ImageSpec", ptr %m_spec20, i32 0, i32 5
  %10 = load i32, ptr %depth, align 4
  %cmp21 = icmp eq i32 %10, 1
  br i1 %cmp21, label %if.then22, label %if.end23

if.then22:                                        ; preds = %land.lhs.true19
  store i1 false, ptr %retval, align 1
  br label %return

if.end23:                                         ; preds = %land.lhs.true19, %land.lhs.true16, %for.body
  store i32 1, ptr %ref.tmp, align 4
  %m_spec25 = getelementptr inbounds %"class.OpenImageIO_v2_6_0::ImageInput", ptr %this1, i32 0, i32 1
  %width26 = getelementptr inbounds %"class.OpenImageIO_v2_6_0::ImageSpec", ptr %m_spec25, i32 0, i32 3
  %11 = load i32, ptr %width26, align 4
  %div = sdiv i32 %11, 2
  store i32 %div, ptr %ref.tmp24, align 4
  %call27 = call noundef nonnull align 4 dereferenceable(4) ptr @_ZSt3maxIiERKT_S2_S2_(ptr noundef nonnull align 4 dereferenceable(4) %ref.tmp, ptr noundef nonnull align 4 dereferenceable(4) %ref.tmp24)
  %12 = load i32, ptr %call27, align 4
  %m_spec28 = getelementptr inbounds %"class.OpenImageIO_v2_6_0::ImageInput", ptr %this1, i32 0, i32 1
  %width29 = getelementptr inbounds %"class.OpenImageIO_v2_6_0::ImageSpec", ptr %m_spec28, i32 0, i32 3
  store i32 %12, ptr %width29, align 4
  store i32 1, ptr %ref.tmp30, align 4
  %m_spec32 = getelementptr inbounds %"class.OpenImageIO_v2_6_0::ImageInput", ptr %this1, i32 0, i32 1
  %height33 = getelementptr inbounds %"class.OpenImageIO_v2_6_0::ImageSpec", ptr %m_spec32, i32 0, i32 4
  %13 = load i32, ptr %height33, align 8
  %div34 = sdiv i32 %13, 2
  store i32 %div34, ptr %ref.tmp31, align 4
  %call35 = call noundef nonnull align 4 dereferenceable(4) ptr @_ZSt3maxIiERKT_S2_S2_(ptr noundef nonnull align 4 dereferenceable(4) %ref.tmp30, ptr noundef nonnull align 4 dereferenceable(4) %ref.tmp31)
  %14 = load i32, ptr %call35, align 4
  %m_spec36 = getelementptr inbounds %"class.OpenImageIO_v2_6_0::ImageInput", ptr %this1, i32 0, i32 1
  %height37 = getelementptr inbounds %"class.OpenImageIO_v2_6_0::ImageSpec", ptr %m_spec36, i32 0, i32 4
  store i32 %14, ptr %height37, align 8
  store i32 1, ptr %ref.tmp38, align 4
  %m_spec40 = getelementptr inbounds %"class.OpenImageIO_v2_6_0::ImageInput", ptr %this1, i32 0, i32 1
  %depth41 = getelementptr inbounds %"class.OpenImageIO_v2_6_0::ImageSpec", ptr %m_spec40, i32 0, i32 5
  %15 = load i32, ptr %depth41, align 4
  %div42 = sdiv i32 %15, 2
  store i32 %div42, ptr %ref.tmp39, align 4
  %call43 = call noundef nonnull align 4 dereferenceable(4) ptr @_ZSt3maxIiERKT_S2_S2_(ptr noundef nonnull align 4 dereferenceable(4) %ref.tmp38, ptr noundef nonnull align 4 dereferenceable(4) %ref.tmp39)
  %16 = load i32, ptr %call43, align 4
  %m_spec44 = getelementptr inbounds %"class.OpenImageIO_v2_6_0::ImageInput", ptr %this1, i32 0, i32 1
  %depth45 = getelementptr inbounds %"class.OpenImageIO_v2_6_0::ImageSpec", ptr %m_spec44, i32 0, i32 5
  store i32 %16, ptr %depth45, align 4
  %m_spec46 = getelementptr inbounds %"class.OpenImageIO_v2_6_0::ImageInput", ptr %this1, i32 0, i32 1
  %width47 = getelementptr inbounds %"class.OpenImageIO_v2_6_0::ImageSpec", ptr %m_spec46, i32 0, i32 3
  %17 = load i32, ptr %width47, align 4
  %m_spec48 = getelementptr inbounds %"class.OpenImageIO_v2_6_0::ImageInput", ptr %this1, i32 0, i32 1
  %full_width = getelementptr inbounds %"class.OpenImageIO_v2_6_0::ImageSpec", ptr %m_spec48, i32 0, i32 9
  store i32 %17, ptr %full_width, align 4
  %m_spec49 = getelementptr inbounds %"class.OpenImageIO_v2_6_0::ImageInput", ptr %this1, i32 0, i32 1
  %height50 = getelementptr inbounds %"class.OpenImageIO_v2_6_0::ImageSpec", ptr %m_spec49, i32 0, i32 4
  %18 = load i32, ptr %height50, align 8
  %m_spec51 = getelementptr inbounds %"class.OpenImageIO_v2_6_0::ImageInput", ptr %this1, i32 0, i32 1
  %full_height = getelementptr inbounds %"class.OpenImageIO_v2_6_0::ImageSpec", ptr %m_spec51, i32 0, i32 10
  store i32 %18, ptr %full_height, align 8
  %m_spec52 = getelementptr inbounds %"class.OpenImageIO_v2_6_0::ImageInput", ptr %this1, i32 0, i32 1
  %depth53 = getelementptr inbounds %"class.OpenImageIO_v2_6_0::ImageSpec", ptr %m_spec52, i32 0, i32 5
  %19 = load i32, ptr %depth53, align 4
  %m_spec54 = getelementptr inbounds %"class.OpenImageIO_v2_6_0::ImageInput", ptr %this1, i32 0, i32 1
  %full_depth = getelementptr inbounds %"class.OpenImageIO_v2_6_0::ImageSpec", ptr %m_spec54, i32 0, i32 11
  store i32 %19, ptr %full_depth, align 4
  br label %for.inc

for.inc:                                          ; preds = %if.end23
  %m_miplevel55 = getelementptr inbounds %"class.OpenImageIO_v2_6_0::NullInput", ptr %this1, i32 0, i32 3
  %20 = load i32, ptr %m_miplevel55, align 4
  %inc = add nsw i32 %20, 1
  store i32 %inc, ptr %m_miplevel55, align 4
  br label %for.cond, !llvm.loop !9

for.end:                                          ; preds = %for.cond
  store i1 true, ptr %retval, align 1
  br label %return

return:                                           ; preds = %for.end, %if.then22, %if.then9, %if.then5, %if.then
  %21 = load i1, ptr %retval, align 1
  ret i1 %21
}