; Function Attrs: mustprogress uwtable
define hidden noundef zeroext i1 @_ZN18OpenImageIO_v2_6_09NullInput13seek_subimageEii(ptr noundef nonnull align 8 dereferenceable(416) %this, i32 noundef %subimage, i32 noundef %miplevel) unnamed_addr #4 align 2 {
entry:
  %m_subimage.i = getelementptr inbounds i8, ptr %this, i64 216
  %0 = load i32, ptr %m_subimage.i, align 8
  %cmp = icmp eq i32 %0, %subimage
  %m_miplevel.i = getelementptr inbounds i8, ptr %this, i64 220
  %1 = load i32, ptr %m_miplevel.i, align 4
  %cmp3 = icmp eq i32 %1, %miplevel
  %or.cond18 = select i1 %cmp, i1 %cmp3, i1 false
  br i1 %or.cond18, label %return, label %if.end

if.end:                                           ; preds = %entry
  %cmp4.not = icmp eq i32 %subimage, 0
  br i1 %cmp4.not, label %if.end6, label %return

if.end6:                                          ; preds = %if.end
  store i32 0, ptr %m_subimage.i, align 8
  %cmp7 = icmp sgt i32 %miplevel, 0
  br i1 %cmp7, label %land.lhs.true8, label %if.end10

land.lhs.true8:                                   ; preds = %if.end6
  %m_mip = getelementptr inbounds i8, ptr %this, i64 224
  %2 = load i8, ptr %m_mip, align 8
  %3 = and i8 %2, 1
  %tobool.not = icmp eq i8 %3, 0
  br i1 %tobool.not, label %return, label %if.end10

if.end10:                                         ; preds = %land.lhs.true8, %if.end6
  %m_topspec = getelementptr inbounds i8, ptr %this, i64 256
  %m_spec = getelementptr inbounds i8, ptr %this, i64 8
  tail call void @llvm.memcpy.p0.p0.i64(ptr noundef nonnull align 8 dereferenceable(72) %m_spec, ptr noundef nonnull align 8 dereferenceable(72) %m_topspec, i64 72, i1 false)
  %channelformats.i = getelementptr inbounds i8, ptr %this, i64 80
  %channelformats3.i = getelementptr inbounds i8, ptr %this, i64 328
  %call.i = tail call noundef nonnull align 8 dereferenceable(24) ptr @_ZNSt6vectorIN18OpenImageIO_v2_6_08TypeDescESaIS1_EEaSERKS3_(ptr noundef nonnull align 8 dereferenceable(24) %channelformats.i, ptr noundef nonnull align 8 dereferenceable(24) %channelformats3.i)
  %channelnames.i = getelementptr inbounds i8, ptr %this, i64 104
  %channelnames4.i = getelementptr inbounds i8, ptr %this, i64 352
  %call5.i = tail call noundef nonnull align 8 dereferenceable(24) ptr @_ZNSt6vectorINSt7__cxx1112basic_stringIcSt11char_traitsIcESaIcEEESaIS5_EEaSERKS7_(ptr noundef nonnull align 8 dereferenceable(24) %channelnames.i, ptr noundef nonnull align 8 dereferenceable(24) %channelnames4.i)
  %alpha_channel.i = getelementptr inbounds i8, ptr %this, i64 128
  %alpha_channel6.i = getelementptr inbounds i8, ptr %this, i64 376
  tail call void @llvm.memcpy.p0.p0.i64(ptr noundef nonnull align 8 dereferenceable(9) %alpha_channel.i, ptr noundef nonnull align 8 dereferenceable(9) %alpha_channel6.i, i64 9, i1 false)
  %extra_attribs.i = getelementptr inbounds i8, ptr %this, i64 144
  %extra_attribs7.i = getelementptr inbounds i8, ptr %this, i64 392
  %call.i.i = tail call noundef nonnull align 8 dereferenceable(24) ptr @_ZNSt6vectorIN18OpenImageIO_v2_6_010ParamValueESaIS1_EEaSERKS3_(ptr noundef nonnull align 8 dereferenceable(24) %extra_attribs.i, ptr noundef nonnull align 8 dereferenceable(24) %extra_attribs7.i)
  br i1 %cmp7, label %for.body.lr.ph, label %return.loopexit

for.body.lr.ph:                                   ; preds = %if.end10
  %width = getelementptr inbounds i8, ptr %this, i64 20
  %height = getelementptr inbounds i8, ptr %this, i64 24
  %depth = getelementptr inbounds i8, ptr %this, i64 28
  %full_width = getelementptr inbounds i8, ptr %this, i64 44
  %full_height = getelementptr inbounds i8, ptr %this, i64 48
  %full_depth = getelementptr inbounds i8, ptr %this, i64 52
  %4 = load <2 x i32>, ptr %width, align 4
  %depth.promoted = load i32, ptr %depth, align 4
  br label %for.body

for.body:                                         ; preds = %for.body.lr.ph, %if.end23
  %.sroa.speculated26 = phi i32 [ %depth.promoted, %for.body.lr.ph ], [ %.sroa.speculated, %if.end23 ]
  %storemerge20 = phi i32 [ 0, %for.body.lr.ph ], [ %inc, %if.end23 ]
  %5 = phi <2 x i32> [ %4, %for.body.lr.ph ], [ %10, %if.end23 ]
  %6 = icmp ne <2 x i32> %5, <i32 1, i32 1>
  %7 = extractelement <2 x i1> %6, i64 0
  %8 = extractelement <2 x i1> %6, i64 1
  %or.cond.not27 = select i1 %7, i1 true, i1 %8
  %cmp21 = icmp ne i32 %.sroa.speculated26, 1
  %or.cond5.not = select i1 %or.cond.not27, i1 true, i1 %cmp21
  br i1 %or.cond5.not, label %if.end23, label %return.loopexit

if.end23:                                         ; preds = %for.body
  %9 = sdiv <2 x i32> %5, <i32 2, i32 2>
  %10 = tail call <2 x i32> @llvm.smax.v2i32(<2 x i32> %9, <2 x i32> <i32 1, i32 1>)
  %11 = extractelement <2 x i32> %10, i64 0
  store i32 %11, ptr %width, align 4
  %12 = extractelement <2 x i32> %10, i64 1
  store i32 %12, ptr %height, align 8
  %div42 = sdiv i32 %.sroa.speculated26, 2
  %.sroa.speculated = tail call i32 @llvm.smax.i32(i32 %div42, i32 1)
  store i32 %.sroa.speculated, ptr %depth, align 4
  store i32 %11, ptr %full_width, align 4
  store i32 %12, ptr %full_height, align 8
  store i32 %.sroa.speculated, ptr %full_depth, align 4
  %inc = add nuw nsw i32 %storemerge20, 1
  %exitcond.not = icmp eq i32 %inc, %miplevel
  br i1 %exitcond.not, label %return.loopexit, label %for.body, !llvm.loop !11

return.loopexit:                                  ; preds = %if.end23, %for.body, %if.end10
  %storemerge.lcssa = phi i32 [ 0, %if.end10 ], [ %storemerge20, %for.body ], [ %miplevel, %if.end23 ]
  %retval.0.ph = phi i1 [ true, %if.end10 ], [ %or.cond5.not, %for.body ], [ %or.cond5.not, %if.end23 ]
  store i32 %storemerge.lcssa, ptr %m_miplevel.i, align 4
  br label %return

return:                                           ; preds = %return.loopexit, %entry, %land.lhs.true8, %if.end
  %retval.0 = phi i1 [ false, %if.end ], [ false, %land.lhs.true8 ], [ true, %entry ], [ %retval.0.ph, %return.loopexit ]
  ret i1 %retval.0
}